target datalayout = "e-m:e-p270:32:32-p271:32:32-p272:64:64-i64:64-i128:128-f80:128-n8:16:32:64-S128"
target triple = "x86_64-pc-linux-gnu"

; Function Attrs: nounwind uwtable
define internal i32 @latin1_toUtf16(ptr noundef %0, ptr noundef %1, ptr noundef %2, ptr noundef %3, ptr noundef %4) #0 {
  %6 = alloca i32, align 4
  %7 = alloca ptr, align 8
  %8 = alloca ptr, align 8
  %9 = alloca ptr, align 8
  %10 = alloca ptr, align 8
  %11 = alloca ptr, align 8
  store ptr %0, ptr %7, align 8, !tbaa !45
  store ptr %1, ptr %8, align 8, !tbaa !9
  store ptr %2, ptr %9, align 8, !tbaa !4
  store ptr %3, ptr %10, align 8, !tbaa !47
  store ptr %4, ptr %11, align 8, !tbaa !18
  br label %12

12:                                               ; preds = %24, %5
  %13 = load ptr, ptr %8, align 8, !tbaa !9
  %14 = load ptr, ptr %13, align 8, !tbaa !4
  %15 = load ptr, ptr %9, align 8, !tbaa !4
  %16 = icmp ult ptr %14, %15
  br i1 %16, label %17, label %22

17:                                               ; preds = %12
  %18 = load ptr, ptr %10, align 8, !tbaa !47
  %19 = load ptr, ptr %18, align 8, !tbaa !18
  %20 = load ptr, ptr %11, align 8, !tbaa !18
  %21 = icmp ult ptr %19, %20
  br label %22

22:                                               ; preds = %17, %12
  %23 = phi i1 [ false, %12 ], [ %21, %17 ]
  br i1 %23, label %24, label %33

24:                                               ; preds = %22
  %25 = load ptr, ptr %8, align 8, !tbaa !9
  %26 = load ptr, ptr %25, align 8, !tbaa !4
  %27 = getelementptr inbounds nuw i8, ptr %26, i32 1
  store ptr %27, ptr %25, align 8, !tbaa !4
  %28 = load i8, ptr %26, align 1, !tbaa !13
  %29 = zext i8 %28 to i16
  %30 = load ptr, ptr %10, align 8, !tbaa !47
  %31 = load ptr, ptr %30, align 8, !tbaa !18
  %32 = getelementptr inbounds nuw i16, ptr %31, i32 1
  store ptr %32, ptr %30, align 8, !tbaa !18
  store i16 %29, ptr %31, align 2, !tbaa !20
  br label %12, !llvm.loop !90

33:                                               ; preds = %22
  %34 = load ptr, ptr %10, align 8, !tbaa !47
  %35 = load ptr, ptr %34, align 8, !tbaa !18
  %36 = load ptr, ptr %11, align 8, !tbaa !18
  %37 = icmp eq ptr %35, %36
  br i1 %37, label %38, label %44

38:                                               ; preds = %33
  %39 = load ptr, ptr %8, align 8, !tbaa !9
  %40 = load ptr, ptr %39, align 8, !tbaa !4
  %41 = load ptr, ptr %9, align 8, !tbaa !4
  %42 = icmp ult ptr %40, %41
  br i1 %42, label %43, label %44

43:                                               ; preds = %38
  store i32 2, ptr %6, align 4
  br label %45

44:                                               ; preds = %38, %33
  store i32 0, ptr %6, align 4
  br label %45

45:                                               ; preds = %44, %43
  %46 = load i32, ptr %6, align 4
  ret i32 %46
}