; Function Attrs: nofree norecurse nosync nounwind memory(readwrite, inaccessiblemem: none) uwtable
define internal range(i32 0, 3) i32 @latin1_toUtf16(ptr readnone captures(none) %0, ptr noundef captures(none) %1, ptr noundef readnone %2, ptr noundef captures(none) %3, ptr noundef readnone %4) #9 {
  %.promoted = load ptr, ptr %1, align 8, !tbaa !4
  %6 = icmp ult ptr %.promoted, %2
  br i1 %6, label %.lr.ph, label %.thread

.lr.ph:                                           ; preds = %5
  %.promoted11 = load ptr, ptr %3, align 8, !tbaa !34
  br label %7

7:                                                ; preds = %.lr.ph, %11
  %8 = phi ptr [ %.promoted11, %.lr.ph ], [ %15, %11 ]
  %9 = phi ptr [ %.promoted, %.lr.ph ], [ %12, %11 ]
  %10 = icmp ult ptr %8, %4
  br i1 %10, label %11, label %.critedge

11:                                               ; preds = %7
  %12 = getelementptr inbounds nuw i8, ptr %9, i64 1
  store ptr %12, ptr %1, align 8, !tbaa !4
  %13 = load i8, ptr %9, align 1, !tbaa !9
  %14 = zext i8 %13 to i16
  %15 = getelementptr inbounds nuw i8, ptr %8, i64 2
  store ptr %15, ptr %3, align 8, !tbaa !34
  store i16 %14, ptr %8, align 2, !tbaa !12
  %exitcond.not = icmp eq ptr %12, %2
  br i1 %exitcond.not, label %.thread, label %7, !llvm.loop !84

.critedge:                                        ; preds = %7
  %16 = icmp eq ptr %8, %4
  br i1 %16, label %17, label %.thread

.thread:                                          ; preds = %11, %5, %.critedge
  br label %17

17:                                               ; preds = %.critedge, %.thread
  %.0 = phi i32 [ 0, %.thread ], [ 2, %.critedge ]
  ret i32 %.0
}